
_main:

;MyProject.c,1 :: 		void main() {
;MyProject.c,2 :: 		trisb=0x00;
	CLRF       TRISB+0
;MyProject.c,3 :: 		trisc=0x00;
	CLRF       TRISC+0
;MyProject.c,4 :: 		portb=0;
	CLRF       PORTB+0
;MyProject.c,5 :: 		portc=0;
	CLRF       PORTC+0
;MyProject.c,6 :: 		while(1)
L_main0:
;MyProject.c,8 :: 		portb= 0x67;
	MOVLW      103
	MOVWF      PORTB+0
;MyProject.c,9 :: 		delay_ms(500);
	MOVLW      6
	MOVWF      R11+0
	MOVLW      19
	MOVWF      R12+0
	MOVLW      173
	MOVWF      R13+0
L_main2:
	DECFSZ     R13+0, 1
	GOTO       L_main2
	DECFSZ     R12+0, 1
	GOTO       L_main2
	DECFSZ     R11+0, 1
	GOTO       L_main2
	NOP
	NOP
;MyProject.c,10 :: 		portb= 0x7F;
	MOVLW      127
	MOVWF      PORTB+0
;MyProject.c,11 :: 		delay_ms(500);
	MOVLW      6
	MOVWF      R11+0
	MOVLW      19
	MOVWF      R12+0
	MOVLW      173
	MOVWF      R13+0
L_main3:
	DECFSZ     R13+0, 1
	GOTO       L_main3
	DECFSZ     R12+0, 1
	GOTO       L_main3
	DECFSZ     R11+0, 1
	GOTO       L_main3
	NOP
	NOP
;MyProject.c,12 :: 		portb= 0x07;
	MOVLW      7
	MOVWF      PORTB+0
;MyProject.c,13 :: 		delay_ms(500);
	MOVLW      6
	MOVWF      R11+0
	MOVLW      19
	MOVWF      R12+0
	MOVLW      173
	MOVWF      R13+0
L_main4:
	DECFSZ     R13+0, 1
	GOTO       L_main4
	DECFSZ     R12+0, 1
	GOTO       L_main4
	DECFSZ     R11+0, 1
	GOTO       L_main4
	NOP
	NOP
;MyProject.c,14 :: 		portb= 0x7D;
	MOVLW      125
	MOVWF      PORTB+0
;MyProject.c,15 :: 		delay_ms(500);
	MOVLW      6
	MOVWF      R11+0
	MOVLW      19
	MOVWF      R12+0
	MOVLW      173
	MOVWF      R13+0
L_main5:
	DECFSZ     R13+0, 1
	GOTO       L_main5
	DECFSZ     R12+0, 1
	GOTO       L_main5
	DECFSZ     R11+0, 1
	GOTO       L_main5
	NOP
	NOP
;MyProject.c,16 :: 		portb= 0x6D;
	MOVLW      109
	MOVWF      PORTB+0
;MyProject.c,17 :: 		delay_ms(500);
	MOVLW      6
	MOVWF      R11+0
	MOVLW      19
	MOVWF      R12+0
	MOVLW      173
	MOVWF      R13+0
L_main6:
	DECFSZ     R13+0, 1
	GOTO       L_main6
	DECFSZ     R12+0, 1
	GOTO       L_main6
	DECFSZ     R11+0, 1
	GOTO       L_main6
	NOP
	NOP
;MyProject.c,18 :: 		portb= 0x66;
	MOVLW      102
	MOVWF      PORTB+0
;MyProject.c,19 :: 		delay_ms(500);
	MOVLW      6
	MOVWF      R11+0
	MOVLW      19
	MOVWF      R12+0
	MOVLW      173
	MOVWF      R13+0
L_main7:
	DECFSZ     R13+0, 1
	GOTO       L_main7
	DECFSZ     R12+0, 1
	GOTO       L_main7
	DECFSZ     R11+0, 1
	GOTO       L_main7
	NOP
	NOP
;MyProject.c,20 :: 		portb= 0x4F;
	MOVLW      79
	MOVWF      PORTB+0
;MyProject.c,21 :: 		delay_ms(500);
	MOVLW      6
	MOVWF      R11+0
	MOVLW      19
	MOVWF      R12+0
	MOVLW      173
	MOVWF      R13+0
L_main8:
	DECFSZ     R13+0, 1
	GOTO       L_main8
	DECFSZ     R12+0, 1
	GOTO       L_main8
	DECFSZ     R11+0, 1
	GOTO       L_main8
	NOP
	NOP
;MyProject.c,22 :: 		portb= 0x5B;
	MOVLW      91
	MOVWF      PORTB+0
;MyProject.c,23 :: 		delay_ms(500);
	MOVLW      6
	MOVWF      R11+0
	MOVLW      19
	MOVWF      R12+0
	MOVLW      173
	MOVWF      R13+0
L_main9:
	DECFSZ     R13+0, 1
	GOTO       L_main9
	DECFSZ     R12+0, 1
	GOTO       L_main9
	DECFSZ     R11+0, 1
	GOTO       L_main9
	NOP
	NOP
;MyProject.c,24 :: 		portb= 0x06;
	MOVLW      6
	MOVWF      PORTB+0
;MyProject.c,25 :: 		delay_ms(500);
	MOVLW      6
	MOVWF      R11+0
	MOVLW      19
	MOVWF      R12+0
	MOVLW      173
	MOVWF      R13+0
L_main10:
	DECFSZ     R13+0, 1
	GOTO       L_main10
	DECFSZ     R12+0, 1
	GOTO       L_main10
	DECFSZ     R11+0, 1
	GOTO       L_main10
	NOP
	NOP
;MyProject.c,26 :: 		portb= 0x3F;
	MOVLW      63
	MOVWF      PORTB+0
;MyProject.c,27 :: 		delay_ms(500);
	MOVLW      6
	MOVWF      R11+0
	MOVLW      19
	MOVWF      R12+0
	MOVLW      173
	MOVWF      R13+0
L_main11:
	DECFSZ     R13+0, 1
	GOTO       L_main11
	DECFSZ     R12+0, 1
	GOTO       L_main11
	DECFSZ     R11+0, 1
	GOTO       L_main11
	NOP
	NOP
;MyProject.c,28 :: 		portb= 0x00;
	CLRF       PORTB+0
;MyProject.c,30 :: 		portc= 0x67;
	MOVLW      103
	MOVWF      PORTC+0
;MyProject.c,31 :: 		delay_ms(500);
	MOVLW      6
	MOVWF      R11+0
	MOVLW      19
	MOVWF      R12+0
	MOVLW      173
	MOVWF      R13+0
L_main12:
	DECFSZ     R13+0, 1
	GOTO       L_main12
	DECFSZ     R12+0, 1
	GOTO       L_main12
	DECFSZ     R11+0, 1
	GOTO       L_main12
	NOP
	NOP
;MyProject.c,32 :: 		portc= 0x7F;
	MOVLW      127
	MOVWF      PORTC+0
;MyProject.c,33 :: 		delay_ms(500);
	MOVLW      6
	MOVWF      R11+0
	MOVLW      19
	MOVWF      R12+0
	MOVLW      173
	MOVWF      R13+0
L_main13:
	DECFSZ     R13+0, 1
	GOTO       L_main13
	DECFSZ     R12+0, 1
	GOTO       L_main13
	DECFSZ     R11+0, 1
	GOTO       L_main13
	NOP
	NOP
;MyProject.c,34 :: 		portc= 0x07;
	MOVLW      7
	MOVWF      PORTC+0
;MyProject.c,35 :: 		delay_ms(500);
	MOVLW      6
	MOVWF      R11+0
	MOVLW      19
	MOVWF      R12+0
	MOVLW      173
	MOVWF      R13+0
L_main14:
	DECFSZ     R13+0, 1
	GOTO       L_main14
	DECFSZ     R12+0, 1
	GOTO       L_main14
	DECFSZ     R11+0, 1
	GOTO       L_main14
	NOP
	NOP
;MyProject.c,36 :: 		portc= 0x7D;
	MOVLW      125
	MOVWF      PORTC+0
;MyProject.c,37 :: 		delay_ms(500);
	MOVLW      6
	MOVWF      R11+0
	MOVLW      19
	MOVWF      R12+0
	MOVLW      173
	MOVWF      R13+0
L_main15:
	DECFSZ     R13+0, 1
	GOTO       L_main15
	DECFSZ     R12+0, 1
	GOTO       L_main15
	DECFSZ     R11+0, 1
	GOTO       L_main15
	NOP
	NOP
;MyProject.c,38 :: 		portc= 0x6D;
	MOVLW      109
	MOVWF      PORTC+0
;MyProject.c,39 :: 		delay_ms(500);
	MOVLW      6
	MOVWF      R11+0
	MOVLW      19
	MOVWF      R12+0
	MOVLW      173
	MOVWF      R13+0
L_main16:
	DECFSZ     R13+0, 1
	GOTO       L_main16
	DECFSZ     R12+0, 1
	GOTO       L_main16
	DECFSZ     R11+0, 1
	GOTO       L_main16
	NOP
	NOP
;MyProject.c,40 :: 		portc= 0x66;
	MOVLW      102
	MOVWF      PORTC+0
;MyProject.c,41 :: 		delay_ms(500);
	MOVLW      6
	MOVWF      R11+0
	MOVLW      19
	MOVWF      R12+0
	MOVLW      173
	MOVWF      R13+0
L_main17:
	DECFSZ     R13+0, 1
	GOTO       L_main17
	DECFSZ     R12+0, 1
	GOTO       L_main17
	DECFSZ     R11+0, 1
	GOTO       L_main17
	NOP
	NOP
;MyProject.c,42 :: 		portc= 0x4F;
	MOVLW      79
	MOVWF      PORTC+0
;MyProject.c,43 :: 		delay_ms(500);
	MOVLW      6
	MOVWF      R11+0
	MOVLW      19
	MOVWF      R12+0
	MOVLW      173
	MOVWF      R13+0
L_main18:
	DECFSZ     R13+0, 1
	GOTO       L_main18
	DECFSZ     R12+0, 1
	GOTO       L_main18
	DECFSZ     R11+0, 1
	GOTO       L_main18
	NOP
	NOP
;MyProject.c,44 :: 		portc= 0x5B;
	MOVLW      91
	MOVWF      PORTC+0
;MyProject.c,45 :: 		delay_ms(500);
	MOVLW      6
	MOVWF      R11+0
	MOVLW      19
	MOVWF      R12+0
	MOVLW      173
	MOVWF      R13+0
L_main19:
	DECFSZ     R13+0, 1
	GOTO       L_main19
	DECFSZ     R12+0, 1
	GOTO       L_main19
	DECFSZ     R11+0, 1
	GOTO       L_main19
	NOP
	NOP
;MyProject.c,46 :: 		portc= 0x06;
	MOVLW      6
	MOVWF      PORTC+0
;MyProject.c,47 :: 		delay_ms(500);
	MOVLW      6
	MOVWF      R11+0
	MOVLW      19
	MOVWF      R12+0
	MOVLW      173
	MOVWF      R13+0
L_main20:
	DECFSZ     R13+0, 1
	GOTO       L_main20
	DECFSZ     R12+0, 1
	GOTO       L_main20
	DECFSZ     R11+0, 1
	GOTO       L_main20
	NOP
	NOP
;MyProject.c,48 :: 		portc= 0x3F;
	MOVLW      63
	MOVWF      PORTC+0
;MyProject.c,49 :: 		delay_ms(500);
	MOVLW      6
	MOVWF      R11+0
	MOVLW      19
	MOVWF      R12+0
	MOVLW      173
	MOVWF      R13+0
L_main21:
	DECFSZ     R13+0, 1
	GOTO       L_main21
	DECFSZ     R12+0, 1
	GOTO       L_main21
	DECFSZ     R11+0, 1
	GOTO       L_main21
	NOP
	NOP
;MyProject.c,50 :: 		portc= 0x00;
	CLRF       PORTC+0
;MyProject.c,52 :: 		}
	GOTO       L_main0
;MyProject.c,53 :: 		}
L_end_main:
	GOTO       $+0
; end of _main
